target datalayout = "e-m:e-p270:32:32-p271:32:32-p272:64:64-i64:64-i128:128-f80:128-n8:16:32:64-S128"
target triple = "x86_64-pc-linux-gnu"

%struct.ASN1_ITEM_st = type { i8, i64, ptr, i64, ptr, i64, ptr }
%struct.ASN1_AUX_st = type { ptr, i32, i32, i32, ptr, i32, ptr }
%struct.CRYPTO_REF_COUNT = type { i32 }

@.str = private unnamed_addr constant [34 x i8] c"../openssl/crypto/asn1/tasn_utl.c\00", align 1
@__func__.ossl_asn1_do_lock = private unnamed_addr constant [18 x i8] c"ossl_asn1_do_lock\00", align 1

; Function Attrs: inlinehint nounwind uwtable
define internal i32 @CRYPTO_DOWN_REF(ptr noundef %0, ptr noundef %1) #2 {
  %3 = alloca ptr, align 8
  %4 = alloca ptr, align 8
  %5 = alloca i32, align 4
  %6 = alloca i32, align 4
  store ptr %0, ptr %3, align 8, !tbaa !28
  store ptr %1, ptr %4, align 8, !tbaa !17
  %7 = load ptr, ptr %3, align 8, !tbaa !28
  %8 = getelementptr inbounds nuw %struct.CRYPTO_REF_COUNT, ptr %7, i32 0, i32 0
  store i32 1, ptr %5, align 4, !tbaa !19
  %9 = load i32, ptr %5, align 4
  %10 = atomicrmw sub ptr %8, i32 %9 release, align 4
  store i32 %10, ptr %6, align 4
  %11 = load i32, ptr %6, align 4, !tbaa !19
  %12 = sub nsw i32 %11, 1
  %13 = load ptr, ptr %4, align 8, !tbaa !17
  store i32 %12, ptr %13, align 4, !tbaa !19
  %14 = load ptr, ptr %4, align 8, !tbaa !17
  %15 = load i32, ptr %14, align 4, !tbaa !19
  %16 = icmp eq i32 %15, 0
  br i1 %16, label %17, label %18

17:                                               ; preds = %2
  fence acquire
  br label %18

18:                                               ; preds = %17, %2
  ret i32 1
}

; Function Attrs: inlinehint nounwind uwtable
define internal i32 @CRYPTO_UP_REF(ptr noundef %0, ptr noundef %1) #2 {
  %3 = alloca ptr, align 8
  %4 = alloca ptr, align 8
  %5 = alloca i32, align 4
  %6 = alloca i32, align 4
  store ptr %0, ptr %3, align 8, !tbaa !28
  store ptr %1, ptr %4, align 8, !tbaa !17
  %7 = load ptr, ptr %3, align 8, !tbaa !28
  %8 = getelementptr inbounds nuw %struct.CRYPTO_REF_COUNT, ptr %7, i32 0, i32 0
  store i32 1, ptr %5, align 4, !tbaa !19
  %9 = load i32, ptr %5, align 4
  %10 = atomicrmw add ptr %8, i32 %9 monotonic, align 4
  store i32 %10, ptr %6, align 4
  %11 = load i32, ptr %6, align 4, !tbaa !19
  %12 = add nsw i32 %11, 1
  %13 = load ptr, ptr %4, align 8, !tbaa !17
  store i32 %12, ptr %13, align 4, !tbaa !19
  ret i32 1
}

; Function Attrs: inlinehint nounwind uwtable
define internal void @CRYPTO_FREE_REF(ptr noundef %0) #2 {
  %2 = alloca ptr, align 8
  store ptr %0, ptr %2, align 8, !tbaa !28
  ret void
}

; Function Attrs: inlinehint nounwind uwtable
define internal i32 @CRYPTO_NEW_REF(ptr noundef %0, i32 noundef %1) #2 {
  %3 = alloca ptr, align 8
  %4 = alloca i32, align 4
  store ptr %0, ptr %3, align 8, !tbaa !28
  store i32 %1, ptr %4, align 4, !tbaa !19
  %5 = load i32, ptr %4, align 4, !tbaa !19
  %6 = load ptr, ptr %3, align 8, !tbaa !28
  %7 = getelementptr inbounds nuw %struct.CRYPTO_REF_COUNT, ptr %6, i32 0, i32 0
  store atomic i32 %5, ptr %7 seq_cst, align 4, !tbaa !30
  ret i32 1
}

; Function Attrs: nounwind uwtable
define i32 @ossl_asn1_do_lock(ptr noundef %0, i32 noundef %1, ptr noundef %2) #0 {
  %4 = alloca i32, align 4
  %5 = alloca ptr, align 8
  %6 = alloca i32, align 4
  %7 = alloca ptr, align 8
  %8 = alloca ptr, align 8
  %9 = alloca ptr, align 8
  %10 = alloca ptr, align 8
  %11 = alloca i32, align 4
  %12 = alloca i32, align 4
  store ptr %0, ptr %5, align 8, !tbaa !3
  store i32 %1, ptr %6, align 4, !tbaa !19
  store ptr %2, ptr %7, align 8, !tbaa !8
  call void @llvm.lifetime.start.p0(i64 8, ptr %8) #5
  call void @llvm.lifetime.start.p0(i64 8, ptr %9) #5
  call void @llvm.lifetime.start.p0(i64 8, ptr %10) #5
  call void @llvm.lifetime.start.p0(i64 4, ptr %11) #5
  store i32 -1, ptr %11, align 4, !tbaa !19
  %13 = load ptr, ptr %7, align 8, !tbaa !8
  %14 = getelementptr inbounds nuw %struct.ASN1_ITEM_st, ptr %13, i32 0, i32 0
  %15 = load i8, ptr %14, align 8, !tbaa !21
  %16 = sext i8 %15 to i32
  %17 = icmp ne i32 %16, 1
  br i1 %17, label %18, label %25

18:                                               ; preds = %3
  %19 = load ptr, ptr %7, align 8, !tbaa !8
  %20 = getelementptr inbounds nuw %struct.ASN1_ITEM_st, ptr %19, i32 0, i32 0
  %21 = load i8, ptr %20, align 8, !tbaa !21
  %22 = sext i8 %21 to i32
  %23 = icmp ne i32 %22, 6
  br i1 %23, label %24, label %25

24:                                               ; preds = %18
  store i32 0, ptr %4, align 4
  store i32 1, ptr %12, align 4
  br label %90

25:                                               ; preds = %18, %3
  %26 = load ptr, ptr %7, align 8, !tbaa !8
  %27 = getelementptr inbounds nuw %struct.ASN1_ITEM_st, ptr %26, i32 0, i32 4
  %28 = load ptr, ptr %27, align 8, !tbaa !22
  store ptr %28, ptr %8, align 8, !tbaa !23
  %29 = load ptr, ptr %8, align 8, !tbaa !23
  %30 = icmp eq ptr %29, null
  br i1 %30, label %37, label %31

31:                                               ; preds = %25
  %32 = load ptr, ptr %8, align 8, !tbaa !23
  %33 = getelementptr inbounds nuw %struct.ASN1_AUX_st, ptr %32, i32 0, i32 1
  %34 = load i32, ptr %33, align 8, !tbaa !25
  %35 = and i32 %34, 1
  %36 = icmp eq i32 %35, 0
  br i1 %36, label %37, label %38

37:                                               ; preds = %31, %25
  store i32 0, ptr %4, align 4
  store i32 1, ptr %12, align 4
  br label %90

38:                                               ; preds = %31
  %39 = load ptr, ptr %5, align 8, !tbaa !3
  %40 = load ptr, ptr %39, align 8, !tbaa !10
  %41 = load ptr, ptr %8, align 8, !tbaa !23
  %42 = getelementptr inbounds nuw %struct.ASN1_AUX_st, ptr %41, i32 0, i32 3
  %43 = load i32, ptr %42, align 8, !tbaa !27
  %44 = sext i32 %43 to i64
  %45 = getelementptr inbounds i8, ptr %40, i64 %44
  store ptr %45, ptr %9, align 8, !tbaa !28
  %46 = load ptr, ptr %5, align 8, !tbaa !3
  %47 = load ptr, ptr %46, align 8, !tbaa !10
  %48 = load ptr, ptr %8, align 8, !tbaa !23
  %49 = getelementptr inbounds nuw %struct.ASN1_AUX_st, ptr %48, i32 0, i32 2
  %50 = load i32, ptr %49, align 4, !tbaa !29
  %51 = sext i32 %50 to i64
  %52 = getelementptr inbounds i8, ptr %47, i64 %51
  store ptr %52, ptr %10, align 8, !tbaa !28
  %53 = load i32, ptr %6, align 4, !tbaa !19
  switch i32 %53, label %88 [
    i32 0, label %54
    i32 1, label %68
    i32 -1, label %74
  ]

54:                                               ; preds = %38
  %55 = load ptr, ptr %10, align 8, !tbaa !28
  %56 = call i32 @CRYPTO_NEW_REF(ptr noundef %55, i32 noundef 1)
  %57 = icmp ne i32 %56, 0
  br i1 %57, label %59, label %58

58:                                               ; preds = %54
  store i32 -1, ptr %4, align 4
  store i32 1, ptr %12, align 4
  br label %90

59:                                               ; preds = %54
  %60 = call ptr @CRYPTO_THREAD_lock_new()
  %61 = load ptr, ptr %9, align 8, !tbaa !28
  store ptr %60, ptr %61, align 8, !tbaa !28
  %62 = load ptr, ptr %9, align 8, !tbaa !28
  %63 = load ptr, ptr %62, align 8, !tbaa !28
  %64 = icmp eq ptr %63, null
  br i1 %64, label %65, label %67

65:                                               ; preds = %59
  %66 = load ptr, ptr %10, align 8, !tbaa !28
  call void @CRYPTO_FREE_REF(ptr noundef %66)
  call void @ERR_new()
  call void @ERR_set_debug(ptr noundef @.str, i32 noundef 91, ptr noundef @__func__.ossl_asn1_do_lock)
  call void (i32, i32, ptr, ...) @ERR_set_error(i32 noundef 13, i32 noundef 524303, ptr noundef null)
  store i32 -1, ptr %4, align 4
  store i32 1, ptr %12, align 4
  br label %90

67:                                               ; preds = %59
  store i32 1, ptr %11, align 4, !tbaa !19
  br label %88

68:                                               ; preds = %38
  %69 = load ptr, ptr %10, align 8, !tbaa !28
  %70 = call i32 @CRYPTO_UP_REF(ptr noundef %69, ptr noundef %11)
  %71 = icmp ne i32 %70, 0
  br i1 %71, label %73, label %72

72:                                               ; preds = %68
  store i32 -1, ptr %4, align 4
  store i32 1, ptr %12, align 4
  br label %90

73:                                               ; preds = %68
  br label %88

74:                                               ; preds = %38
  %75 = load ptr, ptr %10, align 8, !tbaa !28
  %76 = call i32 @CRYPTO_DOWN_REF(ptr noundef %75, ptr noundef %11)
  %77 = icmp ne i32 %76, 0
  br i1 %77, label %79, label %78

78:                                               ; preds = %74
  store i32 -1, ptr %4, align 4
  store i32 1, ptr %12, align 4
  br label %90

79:                                               ; preds = %74
  %80 = load i32, ptr %11, align 4, !tbaa !19
  %81 = icmp eq i32 %80, 0
  br i1 %81, label %82, label %87

82:                                               ; preds = %79
  %83 = load ptr, ptr %9, align 8, !tbaa !28
  %84 = load ptr, ptr %83, align 8, !tbaa !28
  call void @CRYPTO_THREAD_lock_free(ptr noundef %84)
  %85 = load ptr, ptr %9, align 8, !tbaa !28
  store ptr null, ptr %85, align 8, !tbaa !28
  %86 = load ptr, ptr %10, align 8, !tbaa !28
  call void @CRYPTO_FREE_REF(ptr noundef %86)
  br label %87

87:                                               ; preds = %82, %79
  br label %88

88:                                               ; preds = %38, %87, %73, %67
  %89 = load i32, ptr %11, align 4, !tbaa !19
  store i32 %89, ptr %4, align 4
  store i32 1, ptr %12, align 4
  br label %90

90:                                               ; preds = %88, %78, %72, %65, %58, %37, %24
  call void @llvm.lifetime.end.p0(i64 4, ptr %11) #5
  call void @llvm.lifetime.end.p0(i64 8, ptr %10) #5
  call void @llvm.lifetime.end.p0(i64 8, ptr %9) #5
  call void @llvm.lifetime.end.p0(i64 8, ptr %8) #5
  %91 = load i32, ptr %4, align 4
  ret i32 %91
}