; Function Attrs: nounwind uwtable
define i32 @ossl_asn1_do_lock(ptr noundef readonly captures(none) %0, i32 noundef %1, ptr noundef readonly captures(none) %2) local_unnamed_addr #3 {
  %4 = load i8, ptr %2, align 8, !tbaa !15
  switch i8 %4, label %CRYPTO_DOWN_REF.exit [
    i8 1, label %5
    i8 6, label %5
  ]

5:                                                ; preds = %3, %3
  %6 = getelementptr inbounds nuw i8, ptr %2, i64 32
  %7 = load ptr, ptr %6, align 8, !tbaa !16
  %8 = icmp eq ptr %7, null
  br i1 %8, label %CRYPTO_DOWN_REF.exit, label %9

9:                                                ; preds = %5
  %10 = getelementptr inbounds nuw i8, ptr %7, i64 8
  %11 = load i32, ptr %10, align 8, !tbaa !17
  %12 = and i32 %11, 1
  %13 = icmp eq i32 %12, 0
  br i1 %13, label %CRYPTO_DOWN_REF.exit, label %14

14:                                               ; preds = %9
  %15 = load ptr, ptr %0, align 8, !tbaa !3
  %16 = getelementptr inbounds nuw i8, ptr %7, i64 16
  %17 = load i32, ptr %16, align 8, !tbaa !19
  %18 = sext i32 %17 to i64
  %19 = getelementptr inbounds i8, ptr %15, i64 %18
  %20 = getelementptr inbounds nuw i8, ptr %7, i64 12
  %21 = load i32, ptr %20, align 4, !tbaa !20
  %22 = sext i32 %21 to i64
  %23 = getelementptr inbounds i8, ptr %15, i64 %22
  switch i32 %1, label %CRYPTO_DOWN_REF.exit [
    i32 0, label %24
    i32 1, label %28
    i32 -1, label %31
  ]

24:                                               ; preds = %14
  store atomic i32 1, ptr %23 seq_cst, align 4, !tbaa !21
  %25 = tail call ptr @CRYPTO_THREAD_lock_new() #8
  store ptr %25, ptr %19, align 8, !tbaa !23
  %26 = icmp eq ptr %25, null
  br i1 %26, label %27, label %CRYPTO_DOWN_REF.exit

27:                                               ; preds = %24
  tail call void @ERR_new() #8
  tail call void @ERR_set_debug(ptr noundef nonnull @.str, i32 noundef 91, ptr noundef nonnull @__func__.ossl_asn1_do_lock) #8
  tail call void (i32, i32, ptr, ...) @ERR_set_error(i32 noundef 13, i32 noundef 524303, ptr noundef null) #8
  br label %CRYPTO_DOWN_REF.exit

28:                                               ; preds = %14
  %29 = atomicrmw add ptr %23, i32 1 monotonic, align 4
  %30 = add nsw i32 %29, 1
  br label %CRYPTO_DOWN_REF.exit

31:                                               ; preds = %14
  %32 = atomicrmw sub ptr %23, i32 1 release, align 4
  %33 = add nsw i32 %32, -1
  %34 = icmp eq i32 %33, 0
  br i1 %34, label %35, label %CRYPTO_DOWN_REF.exit

35:                                               ; preds = %31
  fence acquire
  %36 = load ptr, ptr %19, align 8, !tbaa !23
  tail call void @CRYPTO_THREAD_lock_free(ptr noundef %36) #8
  store ptr null, ptr %19, align 8, !tbaa !23
  br label %CRYPTO_DOWN_REF.exit

CRYPTO_DOWN_REF.exit:                             ; preds = %14, %35, %28, %24, %31, %5, %9, %3, %27
  %.0 = phi i32 [ -1, %27 ], [ 0, %3 ], [ 0, %9 ], [ 0, %5 ], [ -1, %14 ], [ 0, %35 ], [ %30, %28 ], [ 1, %24 ], [ %33, %31 ]
  ret i32 %.0
}